; Function Attrs: nounwind uwtable
define void @Abc_NtkMultiCone_rec(ptr noundef %0, ptr noundef captures(none) %1) local_unnamed_addr #0 {
  %3 = getelementptr inbounds nuw i8, ptr %0, i64 20
  %4 = load i32, ptr %3, align 4
  %5 = and i32 %4, 31
  %or.cond17 = icmp eq i32 %5, 7
  br i1 %or.cond17, label %tailrecurse, label %tailrecurse._crit_edge

tailrecurse._crit_edge:                           ; preds = %tailrecurse, %2
  %.tr.lcssa = phi ptr [ %0, %2 ], [ %58, %tailrecurse ]
  %6 = getelementptr inbounds nuw i8, ptr %1, i64 4
  %7 = load i32, ptr %6, align 4, !tbaa !24
  %8 = icmp sgt i32 %7, 0
  br i1 %8, label %.lr.ph.i, label %._crit_edge.i

.lr.ph.i:                                         ; preds = %tailrecurse._crit_edge
  %9 = getelementptr inbounds nuw i8, ptr %1, i64 8
  %10 = load ptr, ptr %9, align 8, !tbaa !27
  %wide.trip.count.i = zext nneg i32 %7 to i64
  br label %12

11:                                               ; preds = %12
  %indvars.iv.next.i = add nuw nsw i64 %indvars.iv.i, 1
  %exitcond.not.i = icmp eq i64 %indvars.iv.next.i, %wide.trip.count.i
  br i1 %exitcond.not.i, label %._crit_edge.i, label %12, !llvm.loop !56

12:                                               ; preds = %11, %.lr.ph.i
  %indvars.iv.i = phi i64 [ 0, %.lr.ph.i ], [ %indvars.iv.next.i, %11 ]
  %13 = getelementptr inbounds nuw ptr, ptr %10, i64 %indvars.iv.i
  %14 = load ptr, ptr %13, align 8, !tbaa !28
  %15 = icmp eq ptr %14, %.tr.lcssa
  br i1 %15, label %Vec_PtrPushUnique.exit, label %11

._crit_edge.i:                                    ; preds = %11, %tailrecurse._crit_edge
  %16 = load i32, ptr %1, align 8, !tbaa !51
  %17 = icmp eq i32 %7, %16
  br i1 %17, label %18, label %.Vec_PtrGrow.exit11_crit_edge.i.i

.Vec_PtrGrow.exit11_crit_edge.i.i:                ; preds = %._crit_edge.i
  %.phi.trans.insert.i.i = getelementptr inbounds nuw i8, ptr %1, i64 8
  %.pre.i.i = load ptr, ptr %.phi.trans.insert.i.i, align 8, !tbaa !27
  br label %Vec_PtrPush.exit.i

18:                                               ; preds = %._crit_edge.i
  %19 = icmp slt i32 %7, 16
  br i1 %19, label %20, label %28

20:                                               ; preds = %18
  %21 = getelementptr inbounds nuw i8, ptr %1, i64 8
  %22 = load ptr, ptr %21, align 8, !tbaa !27
  %.not9.i.i.i = icmp eq ptr %22, null
  br i1 %.not9.i.i.i, label %25, label %23

23:                                               ; preds = %20
  %24 = tail call dereferenceable_or_null(128) ptr @realloc(ptr noundef nonnull %22, i64 noundef 128) #8
  br label %Vec_PtrGrow.exit.i.i

25:                                               ; preds = %20
  %26 = tail call noalias dereferenceable_or_null(128) ptr @malloc(i64 noundef 128) #7
  br label %Vec_PtrGrow.exit.i.i

Vec_PtrGrow.exit.i.i:                             ; preds = %25, %23
  %27 = phi ptr [ %24, %23 ], [ %26, %25 ]
  store ptr %27, ptr %21, align 8, !tbaa !27
  store i32 16, ptr %1, align 8, !tbaa !51
  br label %Vec_PtrPush.exit.i

28:                                               ; preds = %18
  %29 = shl nuw nsw i32 %7, 1
  %30 = getelementptr inbounds nuw i8, ptr %1, i64 8
  %31 = load ptr, ptr %30, align 8, !tbaa !27
  %.not9.i10.i.i = icmp eq ptr %31, null
  %32 = zext nneg i32 %29 to i64
  %33 = shl nuw nsw i64 %32, 3
  br i1 %.not9.i10.i.i, label %36, label %34

34:                                               ; preds = %28
  %35 = tail call ptr @realloc(ptr noundef nonnull %31, i64 noundef %33) #8
  br label %38

36:                                               ; preds = %28
  %37 = tail call noalias ptr @malloc(i64 noundef %33) #7
  br label %38

38:                                               ; preds = %36, %34
  %39 = phi ptr [ %35, %34 ], [ %37, %36 ]
  store ptr %39, ptr %30, align 8, !tbaa !27
  store i32 %29, ptr %1, align 8, !tbaa !51
  br label %Vec_PtrPush.exit.i

Vec_PtrPush.exit.i:                               ; preds = %38, %Vec_PtrGrow.exit.i.i, %.Vec_PtrGrow.exit11_crit_edge.i.i
  %40 = phi ptr [ %.pre.i.i, %.Vec_PtrGrow.exit11_crit_edge.i.i ], [ %39, %38 ], [ %27, %Vec_PtrGrow.exit.i.i ]
  %41 = load i32, ptr %6, align 4, !tbaa !24
  %42 = add nsw i32 %41, 1
  store i32 %42, ptr %6, align 4, !tbaa !24
  %43 = sext i32 %41 to i64
  %44 = getelementptr inbounds ptr, ptr %40, i64 %43
  store ptr %.tr.lcssa, ptr %44, align 8, !tbaa !28
  br label %Vec_PtrPushUnique.exit

tailrecurse:                                      ; preds = %2, %tailrecurse
  %.tr18 = phi ptr [ %58, %tailrecurse ], [ %0, %2 ]
  %.val11 = load ptr, ptr %.tr18, align 8, !tbaa !32
  %45 = getelementptr i8, ptr %.tr18, i64 32
  %.val12 = load ptr, ptr %45, align 8, !tbaa !33
  %46 = getelementptr i8, ptr %.val11, i64 32
  %.val11.val = load ptr, ptr %46, align 8, !tbaa !3
  %47 = getelementptr i8, ptr %.val11.val, i64 8
  %.val11.val.val = load ptr, ptr %47, align 8, !tbaa !27
  %48 = load i32, ptr %.val12, align 4, !tbaa !34
  %49 = sext i32 %48 to i64
  %50 = getelementptr inbounds ptr, ptr %.val11.val.val, i64 %49
  %51 = load ptr, ptr %50, align 8, !tbaa !28
  tail call void @Abc_NtkMultiCone_rec(ptr noundef %51, ptr noundef %1)
  %.val9 = load ptr, ptr %.tr18, align 8, !tbaa !32
  %.val10 = load ptr, ptr %45, align 8, !tbaa !33
  %52 = getelementptr i8, ptr %.val9, i64 32
  %.val9.val = load ptr, ptr %52, align 8, !tbaa !3
  %53 = getelementptr i8, ptr %.val9.val, i64 8
  %.val9.val.val = load ptr, ptr %53, align 8, !tbaa !27
  %54 = getelementptr inbounds nuw i8, ptr %.val10, i64 4
  %55 = load i32, ptr %54, align 4, !tbaa !34
  %56 = sext i32 %55 to i64
  %57 = getelementptr inbounds ptr, ptr %.val9.val.val, i64 %56
  %58 = load ptr, ptr %57, align 8, !tbaa !28
  %59 = getelementptr inbounds nuw i8, ptr %58, i64 20
  %60 = load i32, ptr %59, align 4
  %61 = and i32 %60, 31
  %or.cond = icmp eq i32 %61, 7
  br i1 %or.cond, label %tailrecurse, label %tailrecurse._crit_edge

Vec_PtrPushUnique.exit:                           ; preds = %12, %Vec_PtrPush.exit.i
  ret void
}